; Function Attrs: nounwind sspstrong uwtable
define internal i64 @ossl_ssl_session_get_time(i64 noundef %0) #0 {
  %2 = tail call ptr @rb_check_typeddata(i64 noundef %0, ptr noundef nonnull @ossl_ssl_session_type) #4
  %.not = icmp eq ptr %2, null
  br i1 %.not, label %3, label %5

3:                                                ; preds = %1
  %4 = load i64, ptr @rb_eRuntimeError, align 8, !tbaa !6
  tail call void (i64, ptr, ...) @ossl_raise(i64 noundef %4, ptr noundef nonnull @.str.18) #5
  unreachable

5:                                                ; preds = %1
  %6 = tail call i64 @SSL_SESSION_get_time(ptr noundef nonnull %2) #4
  %7 = icmp eq i64 %6, 0
  br i1 %7, label %18, label %8

8:                                                ; preds = %5
  %9 = load i64, ptr @rb_cTime, align 8, !tbaa !6
  %.pr.i = load i64, ptr @ossl_ssl_session_get_time.rbimpl_id, align 8, !tbaa !6
  %.not4.i = icmp eq i64 %.pr.i, 0
  br i1 %.not4.i, label %.lr.ph.i, label %rbimpl_intern_const.exit

.lr.ph.i:                                         ; preds = %8, %.lr.ph.i
  %10 = tail call i64 @rb_intern2(ptr noundef nonnull @.str.20, i64 noundef 2) #4
  store i64 %10, ptr @ossl_ssl_session_get_time.rbimpl_id, align 8, !tbaa !6
  %.not.i = icmp eq i64 %10, 0
  br i1 %.not.i, label %.lr.ph.i, label %rbimpl_intern_const.exit, !llvm.loop !21

rbimpl_intern_const.exit:                         ; preds = %.lr.ph.i, %8
  %.lcssa.i = phi i64 [ %.pr.i, %8 ], [ %10, %.lr.ph.i ]
  %11 = add i64 %6, 4611686018427387904
  %or.cond.i = icmp sgt i64 %11, -1
  br i1 %or.cond.i, label %12, label %15

12:                                               ; preds = %rbimpl_intern_const.exit
  %13 = shl nsw i64 %6, 1
  %14 = or disjoint i64 %13, 1
  br label %rb_long2num_inline.exit

15:                                               ; preds = %rbimpl_intern_const.exit
  %16 = tail call i64 @rb_int2big(i64 noundef %6) #4
  br label %rb_long2num_inline.exit

rb_long2num_inline.exit:                          ; preds = %12, %15
  %.0.i = phi i64 [ %14, %12 ], [ %16, %15 ]
  %17 = tail call i64 (i64, i64, i32, ...) @rb_funcall(i64 noundef %9, i64 noundef %.lcssa.i, i32 noundef 1, i64 noundef %.0.i) #4
  br label %18

18:                                               ; preds = %5, %rb_long2num_inline.exit
  %.0 = phi i64 [ %17, %rb_long2num_inline.exit ], [ 4, %5 ]
  ret i64 %.0
}